
./riscv/kernel:     file format elf64-littleriscv
./riscv/kernel
architecture: riscv:rv64, flags 0x00000112:
EXEC_P, HAS_SYMS, D_PAGED
start address 0x00000000000100e8

Program Header:
0x70000003 off    0x00000000000014f6 vaddr 0x0000000000000000 paddr 0x0000000000000000 align 2**0
         filesz 0x000000000000003d memsz 0x0000000000000000 flags r--
    LOAD off    0x0000000000000000 vaddr 0x0000000000010000 paddr 0x0000000000010000 align 2**12
         filesz 0x00000000000014e4 memsz 0x00000000000014e4 flags r-x
   STACK off    0x0000000000000000 vaddr 0x0000000000000000 paddr 0x0000000000000000 align 2**4
         filesz 0x0000000000000000 memsz 0x0000000000000000 flags rw-

Sections:
Idx Name          Size      VMA               LMA               File off  Algn
  0 .text         000003a8  00000000000100e8  00000000000100e8  000000e8  2**2
                  CONTENTS, ALLOC, LOAD, READONLY, CODE
  1 .eh_frame     00000038  0000000000010490  0000000000010490  00000490  2**3
                  CONTENTS, ALLOC, LOAD, READONLY, DATA
  2 .sdata        0000001c  00000000000114c8  00000000000114c8  000014c8  2**2
                  CONTENTS, ALLOC, LOAD, READONLY, DATA
  3 .comment      00000012  0000000000000000  0000000000000000  000014e4  2**0
                  CONTENTS, READONLY
  4 .riscv.attributes 0000003d  0000000000000000  0000000000000000  000014f6  2**0
                  CONTENTS, READONLY
SYMBOL TABLE:
00000000000100e8 l    d  .text	0000000000000000 .text
0000000000010490 l    d  .eh_frame	0000000000000000 .eh_frame
00000000000114c8 l    d  .sdata	0000000000000000 .sdata
0000000000000000 l    d  .comment	0000000000000000 .comment
0000000000000000 l    d  .riscv.attributes	0000000000000000 .riscv.attributes
0000000000000000 l    df *ABS*	0000000000000000 main.cpp
0000000000011cc8 g       *ABS*	0000000000000000 __global_pointer$
00000000000114c8 g       .sdata	0000000000000000 __SDATA_BEGIN__
00000000000114e8 g       .sdata	0000000000000000 __BSS_END__
00000000000114e4 g       .sdata	0000000000000000 __bss_start
00000000000100e8 g     F .text	00000000000003a8 main
00000000000114c8 g       .sdata	0000000000000000 __DATA_BEGIN__
00000000000114e4 g       .sdata	0000000000000000 _edata
00000000000114e8 g       .sdata	0000000000000000 _end



Disassembly of section .text:

00000000000100e8 <main>:
   100e8:	0000070b          	fchthrd	a4
   100ec:	10802783          	lw	a5,264(zero) # 108 <main-0xffe0>
   100f0:	0007071b          	sext.w	a4,a4
   100f4:	38f77a63          	bgeu	a4,a5,10488 <main+0x3a0>
   100f8:	00100793          	li	a5,1
   100fc:	00011537          	lui	a0,0x11
   10100:	000115b7          	lui	a1,0x11
   10104:	00011637          	lui	a2,0x11
   10108:	000116b7          	lui	a3,0x11
   1010c:	02079893          	sll	a7,a5,0x20
   10110:	4d052687          	flw	fa3,1232(a0) # 114d0 <__DATA_BEGIN__+0x8>
   10114:	4d45a707          	flw	fa4,1236(a1) # 114d4 <__DATA_BEGIN__+0xc>
   10118:	4c862587          	flw	fa1,1224(a2) # 114c8 <__DATA_BEGIN__>
   1011c:	4cc6a607          	flw	fa2,1228(a3) # 114cc <__DATA_BEGIN__+0x4>
   10120:	11003803          	ld	a6,272(zero) # 110 <main-0xffd8>
   10124:	11804503          	lbu	a0,280(zero) # 118 <main-0xffd0>
   10128:	ff010113          	add	sp,sp,-16
   1012c:	00f888b3          	add	a7,a7,a5
   10130:	1c80006f          	j	102f8 <main+0x210>
   10134:	00c16603          	lwu	a2,12(sp)
   10138:	1b003703          	ld	a4,432(zero) # 1b0 <main-0xff38>
   1013c:	1b803303          	ld	t1,440(zero) # 1b8 <main-0xff30>
   10140:	00261693          	sll	a3,a2,0x2
   10144:	00d70733          	add	a4,a4,a3
   10148:	00076583          	lwu	a1,0(a4)
   1014c:	ffff0737          	lui	a4,0xffff0
   10150:	0ff70713          	add	a4,a4,255 # ffffffffffff00ff <__global_pointer$+0xfffffffffffde437>
   10154:	00359693          	sll	a3,a1,0x3
   10158:	40b686b3          	sub	a3,a3,a1
   1015c:	00369693          	sll	a3,a3,0x3
   10160:	00d306b3          	add	a3,t1,a3
   10164:	0016c583          	lbu	a1,1(a3)
   10168:	0025f593          	and	a1,a1,2
   1016c:	16058c63          	beqz	a1,102e4 <main+0x1fc>
   10170:	0086b303          	ld	t1,8(a3)
   10174:	ff000737          	lui	a4,0xff000
   10178:	16030663          	beqz	t1,102e4 <main+0x1fc>
   1017c:	0186b583          	ld	a1,24(a3)
   10180:	29130c63          	beq	t1,a7,10418 <main+0x330>
   10184:	00161313          	sll	t1,a2,0x1
   10188:	19003e83          	ld	t4,400(zero) # 190 <main-0xff58>
   1018c:	00c30633          	add	a2,t1,a2
   10190:	00261613          	sll	a2,a2,0x2
   10194:	00ce8eb3          	add	t4,t4,a2
   10198:	004eee03          	lwu	t3,4(t4)
   1019c:	1a803603          	ld	a2,424(zero) # 1a8 <main-0xff40>
   101a0:	01eef053          	fadd.s	ft0,ft9,ft10
   101a4:	003e1e13          	sll	t3,t3,0x3
   101a8:	01c60e33          	add	t3,a2,t3
   101ac:	00011f37          	lui	t5,0x11
   101b0:	4dcf2087          	flw	ft1,1244(t5) # 114dc <__DATA_BEGIN__+0x14>
   101b4:	004e2507          	flw	fa0,4(t3)
   101b8:	008ee303          	lwu	t1,8(t4)
   101bc:	0800f053          	fsub.s	ft0,ft1,ft0
   101c0:	11e57553          	fmul.s	fa0,fa0,ft10
   101c4:	00331313          	sll	t1,t1,0x3
   101c8:	00660333          	add	t1,a2,t1
   101cc:	00432787          	flw	fa5,4(t1)
   101d0:	000eee83          	lwu	t4,0(t4)
   101d4:	000e2107          	flw	ft2,0(t3)
   101d8:	50f077c3          	fmadd.s	fa5,ft0,fa5,fa0
   101dc:	003e9e13          	sll	t3,t4,0x3
   101e0:	01c60633          	add	a2,a2,t3
   101e4:	00462507          	flw	fa0,4(a2)
   101e8:	102f7f53          	fmul.s	ft10,ft10,ft2
   101ec:	00032107          	flw	ft2,0(t1)
   101f0:	79d57543          	fmadd.s	fa0,fa0,ft9,fa5
   101f4:	0086a303          	lw	t1,8(a3)
   101f8:	00c6ae03          	lw	t3,12(a3)
   101fc:	f0207043          	fmadd.s	ft0,ft0,ft2,ft10
   10200:	00062787          	flw	fa5,0(a2)
   10204:	c00516d3          	fcvt.w.s	a3,fa0,rtz
   10208:	d00e7153          	fcvt.s.w	ft2,t3
   1020c:	00011637          	lui	a2,0x11
   10210:	d006f1d3          	fcvt.s.w	ft3,a3
   10214:	01d7f7c3          	fmadd.s	fa5,fa5,ft9,ft0
   10218:	000116b7          	lui	a3,0x11
   1021c:	08357553          	fsub.s	fa0,fa0,ft3
   10220:	4d86a287          	flw	ft5,1240(a3) # 114d8 <__DATA_BEGIN__+0x10>
   10224:	4e062187          	flw	ft3,1248(a2) # 114e0 <__DATA_BEGIN__+0x18>
   10228:	c00796d3          	fcvt.w.s	a3,fa5,rtz
   1022c:	d0037353          	fcvt.s.w	ft6,t1
   10230:	10257553          	fmul.s	fa0,fa0,ft2
   10234:	d006f053          	fcvt.s.w	ft0,a3
   10238:	000116b7          	lui	a3,0x11
   1023c:	4d06a107          	flw	ft2,1232(a3) # 114d0 <__DATA_BEGIN__+0x8>
   10240:	0807f7d3          	fsub.s	fa5,fa5,ft0
   10244:	c0151653          	fcvt.wu.s	a2,fa0,rtz
   10248:	f0000253          	fmv.w.x	ft4,zero
   1024c:	01c6063b          	addw	a2,a2,t3
   10250:	03c6763b          	remuw	a2,a2,t3
   10254:	1067f7d3          	fmul.s	fa5,fa5,ft6
   10258:	c01796d3          	fcvt.wu.s	a3,fa5,rtz
   1025c:	006686bb          	addw	a3,a3,t1
   10260:	0266f6bb          	remuw	a3,a3,t1
   10264:	0266063b          	mulw	a2,a2,t1
   10268:	00c686bb          	addw	a3,a3,a2
   1026c:	02069613          	sll	a2,a3,0x20
   10270:	01e65693          	srl	a3,a2,0x1e
   10274:	00d585b3          	add	a1,a1,a3
   10278:	0015c303          	lbu	t1,1(a1)
   1027c:	0025c603          	lbu	a2,2(a1)
   10280:	0005c683          	lbu	a3,0(a1)
   10284:	d0137053          	fcvt.s.wu	ft0,t1
   10288:	d0167553          	fcvt.s.wu	fa0,a2
   1028c:	d016f7d3          	fcvt.s.wu	fa5,a3
   10290:	10507053          	fmul.s	ft0,ft0,ft5
   10294:	10557553          	fmul.s	fa0,fa0,ft5
   10298:	1057f7d3          	fmul.s	fa5,fa5,ft5
   1029c:	28401053          	fmax.s	ft0,ft0,ft4
   102a0:	28451553          	fmax.s	fa0,fa0,ft4
   102a4:	284797d3          	fmax.s	fa5,fa5,ft4
   102a8:	28100053          	fmin.s	ft0,ft0,ft1
   102ac:	28150553          	fmin.s	fa0,fa0,ft1
   102b0:	281787d3          	fmin.s	fa5,fa5,ft1
   102b4:	10307043          	fmadd.s	ft0,ft0,ft3,ft2
   102b8:	10357543          	fmadd.s	fa0,fa0,ft3,ft2
   102bc:	1037f7c3          	fmadd.s	fa5,fa5,ft3,ft2
   102c0:	c01016d3          	fcvt.wu.s	a3,ft0,rtz
   102c4:	c0151653          	fcvt.wu.s	a2,fa0,rtz
   102c8:	c01795d3          	fcvt.wu.s	a1,fa5,rtz
   102cc:	0086969b          	sllw	a3,a3,0x8
   102d0:	0106161b          	sllw	a2,a2,0x10
   102d4:	00c6e6b3          	or	a3,a3,a2
   102d8:	00b6e6b3          	or	a3,a3,a1
   102dc:	00e6e733          	or	a4,a3,a4
   102e0:	0007071b          	sext.w	a4,a4
   102e4:	00e7a023          	sw	a4,0(a5)
   102e8:	0000070b          	fchthrd	a4
   102ec:	10802783          	lw	a5,264(zero) # 108 <main-0xffe0>
   102f0:	0007071b          	sext.w	a4,a4
   102f4:	0af77263          	bgeu	a4,a5,10398 <main+0x2b0>
   102f8:	10002783          	lw	a5,256(zero) # 100 <main-0xffe8>
   102fc:	0057569b          	srlw	a3,a4,0x5
   10300:	0027559b          	srlw	a1,a4,0x2
   10304:	0027d31b          	srlw	t1,a5,0x2
   10308:	0266d63b          	divuw	a2,a3,t1
   1030c:	0075f593          	and	a1,a1,7
   10310:	00377713          	and	a4,a4,3
   10314:	0266f6bb          	remuw	a3,a3,t1
   10318:	0036161b          	sllw	a2,a2,0x3
   1031c:	00b6063b          	addw	a2,a2,a1
   10320:	02c787bb          	mulw	a5,a5,a2
   10324:	0026969b          	sllw	a3,a3,0x2
   10328:	00e686bb          	addw	a3,a3,a4
   1032c:	00d787bb          	addw	a5,a5,a3
   10330:	02079793          	sll	a5,a5,0x20
   10334:	0207d793          	srl	a5,a5,0x20
   10338:	06050663          	beqz	a0,103a4 <main+0x2bc>
   1033c:	16803703          	ld	a4,360(zero) # 168 <main-0xff80>
   10340:	00579693          	sll	a3,a5,0x5
   10344:	00d70733          	add	a4,a4,a3
   10348:	00072007          	flw	ft0,0(a4) # ffffffffff000000 <__global_pointer$+0xfffffffffefee338>
   1034c:	00472087          	flw	ft1,4(a4)
   10350:	00872107          	flw	ft2,8(a4)
   10354:	00c72187          	flw	ft3,12(a4)
   10358:	01072207          	flw	ft4,16(a4)
   1035c:	01472287          	flw	ft5,20(a4)
   10360:	01872307          	flw	ft6,24(a4)
   10364:	01c72387          	flw	ft7,28(a4)
   10368:	00005e0b          	traceray	ft8,ft0,0
   1036c:	a1c38753          	fle.s	a4,ft7,ft8
   10370:	00279793          	sll	a5,a5,0x2
   10374:	01f12627          	fsw	ft11,12(sp)
   10378:	00f807b3          	add	a5,a6,a5
   1037c:	da070ce3          	beqz	a4,10134 <main+0x4c>
   10380:	ff000737          	lui	a4,0xff000
   10384:	00e7a023          	sw	a4,0(a5)
   10388:	0000070b          	fchthrd	a4
   1038c:	10802783          	lw	a5,264(zero) # 108 <main-0xffe0>
   10390:	0007071b          	sext.w	a4,a4
   10394:	f6f762e3          	bltu	a4,a5,102f8 <main+0x210>
   10398:	00000513          	li	a0,0
   1039c:	01010113          	add	sp,sp,16
   103a0:	00008067          	ret
   103a4:	d006f7d3          	fcvt.s.w	fa5,a3
   103a8:	12002507          	flw	fa0,288(zero) # 120 <main-0xffc8>
   103ac:	d0067353          	fcvt.s.w	ft6,a2
   103b0:	00d7f7d3          	fadd.s	fa5,fa5,fa3
   103b4:	14c02287          	flw	ft5,332(zero) # 14c <main-0xff9c>
   103b8:	00d37353          	fadd.s	ft6,ft6,fa3
   103bc:	12402207          	flw	ft4,292(zero) # 124 <main-0xffc4>
   103c0:	15002187          	flw	ft3,336(zero) # 150 <main-0xff98>
   103c4:	70a7f7c3          	fmadd.s	fa5,fa5,fa0,fa4
   103c8:	13c02107          	flw	ft2,316(zero) # 13c <main-0xffac>
   103cc:	15402087          	flw	ft1,340(zero) # 154 <main-0xff94>
   103d0:	13402007          	flw	ft0,308(zero) # 134 <main-0xffb4>
   103d4:	13802507          	flw	fa0,312(zero) # 138 <main-0xffb0>
   103d8:	70437343          	fmadd.s	ft6,ft6,ft4,fa4
   103dc:	2807f047          	fmsub.s	ft0,fa5,ft0,ft5
   103e0:	18a7f547          	fmsub.s	fa0,fa5,fa0,ft3
   103e4:	0827f7c7          	fmsub.s	fa5,fa5,ft2,ft1
   103e8:	14002207          	flw	ft4,320(zero) # 140 <main-0xffa8>
   103ec:	14802087          	flw	ft1,328(zero) # 148 <main-0xffa0>
   103f0:	14402287          	flw	ft5,324(zero) # 144 <main-0xffa4>
   103f4:	00437243          	fmadd.s	ft4,ft6,ft4,ft0
   103f8:	13002107          	flw	ft2,304(zero) # 130 <main-0xffb8>
   103fc:	505372c3          	fmadd.s	ft5,ft6,ft5,fa0
   10400:	12802007          	flw	ft0,296(zero) # 128 <main-0xffc0>
   10404:	78137343          	fmadd.s	ft6,ft6,ft1,fa5
   10408:	20b583d3          	fmv.s	ft7,fa1
   1040c:	12c02087          	flw	ft1,300(zero) # 12c <main-0xffbc>
   10410:	20c601d3          	fmv.s	ft3,fa2
   10414:	f55ff06f          	j	10368 <main+0x280>
   10418:	0025c603          	lbu	a2,2(a1)
   1041c:	0005c683          	lbu	a3,0(a1)
   10420:	0015ce03          	lbu	t3,1(a1)
   10424:	00011337          	lui	t1,0x11
   10428:	4d832107          	flw	ft2,1240(t1) # 114d8 <__DATA_BEGIN__+0x10>
   1042c:	d0167553          	fcvt.s.wu	fa0,a2
   10430:	d016f7d3          	fcvt.s.wu	fa5,a3
   10434:	d01e7053          	fcvt.s.wu	ft0,t3
   10438:	10257553          	fmul.s	fa0,fa0,ft2
   1043c:	1027f7d3          	fmul.s	fa5,fa5,ft2
   10440:	10207053          	fmul.s	ft0,ft0,ft2
   10444:	f00000d3          	fmv.w.x	ft1,zero
   10448:	000116b7          	lui	a3,0x11
   1044c:	4dc6a187          	flw	ft3,1244(a3) # 114dc <__DATA_BEGIN__+0x14>
   10450:	28151553          	fmax.s	fa0,fa0,ft1
   10454:	28101053          	fmax.s	ft0,ft0,ft1
   10458:	281797d3          	fmax.s	fa5,fa5,ft1
   1045c:	00011637          	lui	a2,0x11
   10460:	000116b7          	lui	a3,0x11
   10464:	4e062107          	flw	ft2,1248(a2) # 114e0 <__DATA_BEGIN__+0x18>
   10468:	4d06a087          	flw	ft1,1232(a3) # 114d0 <__DATA_BEGIN__+0x8>
   1046c:	28300053          	fmin.s	ft0,ft0,ft3
   10470:	28350553          	fmin.s	fa0,fa0,ft3
   10474:	283787d3          	fmin.s	fa5,fa5,ft3
   10478:	08207043          	fmadd.s	ft0,ft0,ft2,ft1
   1047c:	08257543          	fmadd.s	fa0,fa0,ft2,ft1
   10480:	0827f7c3          	fmadd.s	fa5,fa5,ft2,ft1
   10484:	e3dff06f          	j	102c0 <main+0x1d8>
   10488:	00000513          	li	a0,0
   1048c:	00008067          	ret
